target datalayout = "e-m:e-p270:32:32-p271:32:32-p272:64:64-i64:64-i128:128-f80:128-n8:16:32:64-S128"
target triple = "x86_64-pc-linux-gnu"

%struct._php_stream_xport_param = type { i32, i8, %struct.anon.8, %struct.anon.9 }
%struct.anon.8 = type { ptr, i64, ptr, ptr, ptr, i64, i32, i32, i32 }
%struct.anon.9 = type { ptr, ptr, i32, ptr, ptr, i32, i32 }

; Function Attrs: nounwind uwtable
define i32 @php_stream_xport_get_name(ptr noundef %0, i32 noundef %1, ptr noundef %2, ptr noundef %3, ptr noundef %4) #0 {
  %6 = alloca i32, align 4
  %7 = alloca ptr, align 8
  %8 = alloca i32, align 4
  %9 = alloca ptr, align 8
  %10 = alloca ptr, align 8
  %11 = alloca ptr, align 8
  %12 = alloca %struct._php_stream_xport_param, align 8
  %13 = alloca i32, align 4
  store ptr %0, ptr %7, align 8
  store i32 %1, ptr %8, align 4
  store ptr %2, ptr %9, align 8
  store ptr %3, ptr %10, align 8
  store ptr %4, ptr %11, align 8
  call void @llvm.memset.p0.i64(ptr align 8 %12, i8 0, i64 120, i1 false)
  %14 = load i32, ptr %8, align 4
  %15 = icmp ne i32 %14, 0
  %16 = select i1 %15, i32 6, i32 5
  %17 = getelementptr inbounds %struct._php_stream_xport_param, ptr %12, i32 0, i32 0
  store i32 %16, ptr %17, align 8
  %18 = load ptr, ptr %10, align 8
  %19 = icmp ne ptr %18, null
  %20 = select i1 %19, i32 1, i32 0
  %21 = getelementptr inbounds %struct._php_stream_xport_param, ptr %12, i32 0, i32 1
  %22 = trunc i32 %20 to i8
  %23 = load i8, ptr %21, align 4
  %24 = and i8 %22, 1
  %25 = and i8 %23, -2
  %26 = or i8 %25, %24
  store i8 %26, ptr %21, align 4
  %27 = load ptr, ptr %9, align 8
  %28 = icmp ne ptr %27, null
  %29 = select i1 %28, i32 1, i32 0
  %30 = getelementptr inbounds %struct._php_stream_xport_param, ptr %12, i32 0, i32 1
  %31 = trunc i32 %29 to i8
  %32 = load i8, ptr %30, align 4
  %33 = and i8 %31, 1
  %34 = shl i8 %33, 1
  %35 = and i8 %32, -3
  %36 = or i8 %35, %34
  store i8 %36, ptr %30, align 4
  %37 = load ptr, ptr %7, align 8
  %38 = call i32 @_php_stream_set_option(ptr noundef %37, i32 noundef 7, i32 noundef 0, ptr noundef %12)
  store i32 %38, ptr %13, align 4
  %39 = load i32, ptr %13, align 4
  %40 = icmp eq i32 %39, 0
  br i1 %40, label %41, label %65

41:                                               ; preds = %5
  %42 = load ptr, ptr %10, align 8
  %43 = icmp ne ptr %42, null
  br i1 %43, label %44, label %53

44:                                               ; preds = %41
  %45 = getelementptr inbounds %struct._php_stream_xport_param, ptr %12, i32 0, i32 3
  %46 = getelementptr inbounds %struct.anon.9, ptr %45, i32 0, i32 1
  %47 = load ptr, ptr %46, align 8
  %48 = load ptr, ptr %10, align 8
  store ptr %47, ptr %48, align 8
  %49 = getelementptr inbounds %struct._php_stream_xport_param, ptr %12, i32 0, i32 3
  %50 = getelementptr inbounds %struct.anon.9, ptr %49, i32 0, i32 2
  %51 = load i32, ptr %50, align 8
  %52 = load ptr, ptr %11, align 8
  store i32 %51, ptr %52, align 4
  br label %53

53:                                               ; preds = %44, %41
  %54 = load ptr, ptr %9, align 8
  %55 = icmp ne ptr %54, null
  br i1 %55, label %56, label %61

56:                                               ; preds = %53
  %57 = getelementptr inbounds %struct._php_stream_xport_param, ptr %12, i32 0, i32 3
  %58 = getelementptr inbounds %struct.anon.9, ptr %57, i32 0, i32 3
  %59 = load ptr, ptr %58, align 8
  %60 = load ptr, ptr %9, align 8
  store ptr %59, ptr %60, align 8
  br label %61

61:                                               ; preds = %56, %53
  %62 = getelementptr inbounds %struct._php_stream_xport_param, ptr %12, i32 0, i32 3
  %63 = getelementptr inbounds %struct.anon.9, ptr %62, i32 0, i32 5
  %64 = load i32, ptr %63, align 8
  store i32 %64, ptr %6, align 4
  br label %67

65:                                               ; preds = %5
  %66 = load i32, ptr %13, align 4
  store i32 %66, ptr %6, align 4
  br label %67

67:                                               ; preds = %65, %61
  %68 = load i32, ptr %6, align 4
  ret i32 %68
}