; Function Attrs: nounwind uwtable
define i32 @php_stream_xport_get_name(ptr noundef %0, i32 noundef %1, ptr noundef writeonly %2, ptr noundef writeonly %3, ptr nocapture noundef writeonly %4) local_unnamed_addr #1 {
  %6 = alloca %struct._php_stream_xport_param, align 8
  call void @llvm.memset.p0.i64(ptr noundef nonnull align 8 dereferenceable(120) %6, i8 0, i64 120, i1 false)
  %.not = icmp eq i32 %1, 0
  %7 = select i1 %.not, i32 5, i32 6
  store i32 %7, ptr %6, align 8
  %.not14 = icmp ne ptr %3, null
  %8 = getelementptr inbounds i8, ptr %6, i64 4
  %9 = zext i1 %.not14 to i8
  %.not15.not = icmp eq ptr %2, null
  %10 = select i1 %.not15.not, i8 0, i8 2
  %11 = or disjoint i8 %10, %9
  store i8 %11, ptr %8, align 4
  %12 = call i32 @_php_stream_set_option(ptr noundef %0, i32 noundef 7, i32 noundef 0, ptr noundef nonnull %6) #14
  %13 = icmp eq i32 %12, 0
  br i1 %13, label %14, label %27

14:                                               ; preds = %5
  br i1 %.not14, label %15, label %20

15:                                               ; preds = %14
  %16 = getelementptr inbounds i8, ptr %6, i64 80
  %17 = load ptr, ptr %16, align 8
  store ptr %17, ptr %3, align 8
  %18 = getelementptr inbounds i8, ptr %6, i64 88
  %19 = load i32, ptr %18, align 8
  store i32 %19, ptr %4, align 4
  br label %20

20:                                               ; preds = %15, %14
  br i1 %.not15.not, label %24, label %21

21:                                               ; preds = %20
  %22 = getelementptr inbounds i8, ptr %6, i64 96
  %23 = load ptr, ptr %22, align 8
  store ptr %23, ptr %2, align 8
  br label %24

24:                                               ; preds = %21, %20
  %25 = getelementptr inbounds i8, ptr %6, i64 112
  %26 = load i32, ptr %25, align 8
  br label %27

27:                                               ; preds = %5, %24
  %.0 = phi i32 [ %26, %24 ], [ %12, %5 ]
  ret i32 %.0
}